; Function Attrs: nounwind uwtable
define ptr @l_Array_foldlMUnsafe_fold___at___private_Lean_Meta_Instances_0__Lean_Meta_computeSynthOrder___spec__4(ptr noundef %0, ptr noundef readonly captures(none) %1, i64 noundef %2, i64 noundef %3, ptr noundef %4) local_unnamed_addr #1 {
  %.not36 = icmp eq i64 %2, %3
  br i1 %.not36, label %._crit_edge, label %.lr.ph

.lr.ph:                                           ; preds = %5
  %6 = getelementptr inbounds nuw i8, ptr %1, i64 24
  %7 = ptrtoint ptr %0 to i64
  %8 = and i64 %7, 1
  %.not34 = icmp eq i64 %8, 0
  br i1 %.not34, label %.lr.ph.split.us, label %.lr.ph.split, !prof !14

.lr.ph.split.us:                                  ; preds = %.lr.ph, %lean_dec.exit.us
  %.02038.us = phi i64 [ %33, %lean_dec.exit.us ], [ %2, %.lr.ph ]
  %.02237.us = phi ptr [ %.224.us, %lean_dec.exit.us ], [ %4, %.lr.ph ]
  %9 = getelementptr inbounds nuw [0 x ptr], ptr %6, i64 0, i64 %.02038.us
  %10 = load ptr, ptr %9, align 8, !tbaa !9
  %11 = ptrtoint ptr %10 to i64
  %12 = and i64 %11, 1
  %.not.i25.not.us = icmp eq i64 %12, 0
  br i1 %.not.i25.not.us, label %13, label %lean_nat_eq.exit.us.thread

13:                                               ; preds = %.lr.ph.split.us
  %.val.i.i.us = load i32, ptr %10, align 4, !tbaa !4
  %14 = icmp sgt i32 %.val.i.i.us, 0
  br i1 %14, label %17, label %15, !prof !11

15:                                               ; preds = %13
  %.not.i.i.us = icmp eq i32 %.val.i.i.us, 0
  br i1 %.not.i.i.us, label %lean_nat_eq.exit.us, label %16

16:                                               ; preds = %15
  tail call void @lean_inc_ref_cold(ptr noundef nonnull %10) #6
  br label %lean_nat_eq.exit.us

17:                                               ; preds = %13
  %18 = add nuw i32 %.val.i.i.us, 1
  store i32 %18, ptr %10, align 4, !tbaa !4
  br label %lean_nat_eq.exit.us

lean_nat_eq.exit.us:                              ; preds = %17, %16, %15
  %19 = tail call zeroext i1 @lean_nat_big_eq(ptr noundef nonnull %10, ptr noundef %0) #6
  %20 = add i64 %.02038.us, 1
  br i1 %19, label %26, label %23

lean_nat_eq.exit.us.thread:                       ; preds = %.lr.ph.split.us
  %21 = tail call zeroext i1 @lean_nat_big_eq(ptr noundef %10, ptr noundef %0) #6
  %22 = add i64 %.02038.us, 1
  br i1 %21, label %lean_dec.exit.us, label %23

23:                                               ; preds = %lean_nat_eq.exit.us.thread, %lean_nat_eq.exit.us
  %24 = phi i64 [ %22, %lean_nat_eq.exit.us.thread ], [ %20, %lean_nat_eq.exit.us ]
  %25 = tail call ptr @lean_array_push(ptr noundef %.02237.us, ptr noundef %10) #6
  br label %lean_dec.exit.us

26:                                               ; preds = %lean_nat_eq.exit.us
  %27 = load i32, ptr %10, align 4, !tbaa !4
  %28 = icmp sgt i32 %27, 1
  br i1 %28, label %31, label %29, !prof !11

29:                                               ; preds = %26
  %.not.i.us = icmp eq i32 %27, 0
  br i1 %.not.i.us, label %lean_dec.exit.us, label %30

30:                                               ; preds = %29
  tail call void @lean_dec_ref_cold(ptr noundef nonnull %10) #6
  br label %lean_dec.exit.us

31:                                               ; preds = %26
  %32 = add nsw i32 %27, -1
  store i32 %32, ptr %10, align 4, !tbaa !4
  br label %lean_dec.exit.us

lean_dec.exit.us:                                 ; preds = %lean_nat_eq.exit.us.thread, %31, %30, %29, %23
  %33 = phi i64 [ %24, %23 ], [ %20, %30 ], [ %20, %29 ], [ %20, %31 ], [ %22, %lean_nat_eq.exit.us.thread ]
  %.224.us = phi ptr [ %25, %23 ], [ %.02237.us, %30 ], [ %.02237.us, %29 ], [ %.02237.us, %31 ], [ %.02237.us, %lean_nat_eq.exit.us.thread ]
  %.not.us = icmp eq i64 %33, %3
  br i1 %.not.us, label %._crit_edge, label %.lr.ph.split.us

.lr.ph.split:                                     ; preds = %.lr.ph, %lean_dec.exit
  %.02038 = phi i64 [ %.2, %lean_dec.exit ], [ %2, %.lr.ph ]
  %.02237 = phi ptr [ %.224, %lean_dec.exit ], [ %4, %.lr.ph ]
  %34 = getelementptr inbounds nuw [0 x ptr], ptr %6, i64 0, i64 %.02038
  %35 = load ptr, ptr %34, align 8, !tbaa !9
  %36 = ptrtoint ptr %35 to i64
  %37 = and i64 %36, 1
  %.not.i25.not = icmp eq i64 %37, 0
  br i1 %.not.i25.not, label %38, label %lean_array_uget.exit

38:                                               ; preds = %.lr.ph.split
  %.val.i.i = load i32, ptr %35, align 4, !tbaa !4
  %39 = icmp sgt i32 %.val.i.i, 0
  br i1 %39, label %40, label %42, !prof !11

40:                                               ; preds = %38
  %41 = add nuw i32 %.val.i.i, 1
  store i32 %41, ptr %35, align 4, !tbaa !4
  br label %lean_nat_eq.exit

42:                                               ; preds = %38
  %.not.i.i = icmp eq i32 %.val.i.i, 0
  br i1 %.not.i.i, label %lean_nat_eq.exit, label %43

43:                                               ; preds = %42
  tail call void @lean_inc_ref_cold(ptr noundef nonnull %35) #6
  br label %lean_nat_eq.exit

lean_array_uget.exit:                             ; preds = %.lr.ph.split
  %.not35 = icmp eq ptr %35, %0
  %44 = add i64 %.02038, 1
  br i1 %.not35, label %lean_dec.exit, label %47

lean_nat_eq.exit:                                 ; preds = %43, %42, %40
  %45 = tail call zeroext i1 @lean_nat_big_eq(ptr noundef nonnull %35, ptr noundef %0) #6
  %46 = add i64 %.02038, 1
  br i1 %45, label %50, label %47

47:                                               ; preds = %lean_array_uget.exit, %lean_nat_eq.exit
  %48 = phi i64 [ %44, %lean_array_uget.exit ], [ %46, %lean_nat_eq.exit ]
  %49 = tail call ptr @lean_array_push(ptr noundef %.02237, ptr noundef %35) #6
  br label %lean_dec.exit

50:                                               ; preds = %lean_nat_eq.exit
  %51 = load i32, ptr %35, align 4, !tbaa !4
  %52 = icmp sgt i32 %51, 1
  br i1 %52, label %53, label %55, !prof !11

53:                                               ; preds = %50
  %54 = add nsw i32 %51, -1
  store i32 %54, ptr %35, align 4, !tbaa !4
  br label %lean_dec.exit

55:                                               ; preds = %50
  %.not.i = icmp eq i32 %51, 0
  br i1 %.not.i, label %lean_dec.exit, label %56

56:                                               ; preds = %55
  tail call void @lean_dec_ref_cold(ptr noundef nonnull %35) #6
  br label %lean_dec.exit

lean_dec.exit:                                    ; preds = %lean_array_uget.exit, %53, %55, %56, %47
  %.224 = phi ptr [ %49, %47 ], [ %.02237, %56 ], [ %.02237, %55 ], [ %.02237, %53 ], [ %.02237, %lean_array_uget.exit ]
  %.2 = phi i64 [ %48, %47 ], [ %46, %56 ], [ %46, %55 ], [ %46, %53 ], [ %44, %lean_array_uget.exit ]
  %.not = icmp eq i64 %.2, %3
  br i1 %.not, label %._crit_edge, label %.lr.ph.split

._crit_edge:                                      ; preds = %lean_dec.exit, %lean_dec.exit.us, %5
  %.022.lcssa = phi ptr [ %4, %5 ], [ %.224.us, %lean_dec.exit.us ], [ %.224, %lean_dec.exit ]
  ret ptr %.022.lcssa
}